target datalayout = "e-m:e-p270:32:32-p271:32:32-p272:64:64-i64:64-i128:128-f80:128-n8:16:32:64-S128"
target triple = "x86_64-pc-linux-gnu"

%struct.string_list = type { ptr, i64, i64, i8, ptr }
%struct.string_list_item = type { ptr, ptr }

; Function Attrs: nounwind uwtable
define dso_local void @string_list_clear(ptr noundef %0, i32 noundef %1) #0 {
  %3 = alloca ptr, align 8
  %4 = alloca i32, align 4
  %5 = alloca i32, align 4
  store ptr %0, ptr %3, align 8, !tbaa !4
  store i32 %1, ptr %4, align 4, !tbaa !11
  %6 = load ptr, ptr %3, align 8, !tbaa !4
  %7 = getelementptr inbounds nuw %struct.string_list, ptr %6, i32 0, i32 0
  %8 = load ptr, ptr %7, align 8, !tbaa !13
  %9 = icmp ne ptr %8, null
  br i1 %9, label %10, label %66

10:                                               ; preds = %2
  call void @llvm.lifetime.start.p0(i64 4, ptr %5) #9
  %11 = load ptr, ptr %3, align 8, !tbaa !4
  %12 = getelementptr inbounds nuw %struct.string_list, ptr %11, i32 0, i32 3
  %13 = load i8, ptr %12, align 8
  %14 = and i8 %13, 1
  %15 = zext i8 %14 to i32
  %16 = icmp ne i32 %15, 0
  br i1 %16, label %17, label %38

17:                                               ; preds = %10
  store i32 0, ptr %5, align 4, !tbaa !11
  br label %18

18:                                               ; preds = %34, %17
  %19 = load i32, ptr %5, align 4, !tbaa !11
  %20 = sext i32 %19 to i64
  %21 = load ptr, ptr %3, align 8, !tbaa !4
  %22 = getelementptr inbounds nuw %struct.string_list, ptr %21, i32 0, i32 1
  %23 = load i64, ptr %22, align 8, !tbaa !17
  %24 = icmp ult i64 %20, %23
  br i1 %24, label %25, label %37

25:                                               ; preds = %18
  %26 = load ptr, ptr %3, align 8, !tbaa !4
  %27 = getelementptr inbounds nuw %struct.string_list, ptr %26, i32 0, i32 0
  %28 = load ptr, ptr %27, align 8, !tbaa !13
  %29 = load i32, ptr %5, align 4, !tbaa !11
  %30 = sext i32 %29 to i64
  %31 = getelementptr inbounds %struct.string_list_item, ptr %28, i64 %30
  %32 = getelementptr inbounds nuw %struct.string_list_item, ptr %31, i32 0, i32 0
  %33 = load ptr, ptr %32, align 8, !tbaa !19
  call void @free(ptr noundef %33) #9
  br label %34

34:                                               ; preds = %25
  %35 = load i32, ptr %5, align 4, !tbaa !11
  %36 = add nsw i32 %35, 1
  store i32 %36, ptr %5, align 4, !tbaa !11
  br label %18, !llvm.loop !35

37:                                               ; preds = %18
  br label %38

38:                                               ; preds = %37, %10
  %39 = load i32, ptr %4, align 4, !tbaa !11
  %40 = icmp ne i32 %39, 0
  br i1 %40, label %41, label %62

41:                                               ; preds = %38
  store i32 0, ptr %5, align 4, !tbaa !11
  br label %42

42:                                               ; preds = %58, %41
  %43 = load i32, ptr %5, align 4, !tbaa !11
  %44 = sext i32 %43 to i64
  %45 = load ptr, ptr %3, align 8, !tbaa !4
  %46 = getelementptr inbounds nuw %struct.string_list, ptr %45, i32 0, i32 1
  %47 = load i64, ptr %46, align 8, !tbaa !17
  %48 = icmp ult i64 %44, %47
  br i1 %48, label %49, label %61

49:                                               ; preds = %42
  %50 = load ptr, ptr %3, align 8, !tbaa !4
  %51 = getelementptr inbounds nuw %struct.string_list, ptr %50, i32 0, i32 0
  %52 = load ptr, ptr %51, align 8, !tbaa !13
  %53 = load i32, ptr %5, align 4, !tbaa !11
  %54 = sext i32 %53 to i64
  %55 = getelementptr inbounds %struct.string_list_item, ptr %52, i64 %54
  %56 = getelementptr inbounds nuw %struct.string_list_item, ptr %55, i32 0, i32 1
  %57 = load ptr, ptr %56, align 8, !tbaa !21
  call void @free(ptr noundef %57) #9
  br label %58

58:                                               ; preds = %49
  %59 = load i32, ptr %5, align 4, !tbaa !11
  %60 = add nsw i32 %59, 1
  store i32 %60, ptr %5, align 4, !tbaa !11
  br label %42, !llvm.loop !36

61:                                               ; preds = %42
  br label %62

62:                                               ; preds = %61, %38
  %63 = load ptr, ptr %3, align 8, !tbaa !4
  %64 = getelementptr inbounds nuw %struct.string_list, ptr %63, i32 0, i32 0
  %65 = load ptr, ptr %64, align 8, !tbaa !13
  call void @free(ptr noundef %65) #9
  call void @llvm.lifetime.end.p0(i64 4, ptr %5) #9
  br label %66

66:                                               ; preds = %62, %2
  %67 = load ptr, ptr %3, align 8, !tbaa !4
  %68 = getelementptr inbounds nuw %struct.string_list, ptr %67, i32 0, i32 0
  store ptr null, ptr %68, align 8, !tbaa !13
  %69 = load ptr, ptr %3, align 8, !tbaa !4
  %70 = getelementptr inbounds nuw %struct.string_list, ptr %69, i32 0, i32 2
  store i64 0, ptr %70, align 8, !tbaa !18
  %71 = load ptr, ptr %3, align 8, !tbaa !4
  %72 = getelementptr inbounds nuw %struct.string_list, ptr %71, i32 0, i32 1
  store i64 0, ptr %72, align 8, !tbaa !17
  ret void
}