; Function Attrs: nounwind uwtable
define dso_local void @string_list_clear(ptr noundef captures(none) %0, i32 noundef %1) local_unnamed_addr #4 {
  %3 = load ptr, ptr %0, align 8, !tbaa !13
  %.not = icmp eq ptr %3, null
  br i1 %.not, label %23, label %4

4:                                                ; preds = %2
  %5 = getelementptr inbounds nuw i8, ptr %0, i64 24
  %6 = load i8, ptr %5, align 8
  %7 = and i8 %6, 1
  %.not18 = icmp eq i8 %7, 0
  br i1 %.not18, label %.loopexit21, label %.preheader20

.preheader20:                                     ; preds = %4
  %8 = getelementptr inbounds nuw i8, ptr %0, i64 8
  %9 = load i64, ptr %8, align 8, !tbaa !4
  %.not25 = icmp eq i64 %9, 0
  br i1 %.not25, label %.loopexit21, label %.lr.ph

.lr.ph:                                           ; preds = %.preheader20, %.lr.ph
  %indvars.iv = phi i64 [ %indvars.iv.next, %.lr.ph ], [ 0, %.preheader20 ]
  %10 = load ptr, ptr %0, align 8, !tbaa !13
  %11 = getelementptr inbounds nuw %struct.string_list_item, ptr %10, i64 %indvars.iv
  %12 = load ptr, ptr %11, align 8, !tbaa !14
  tail call void @free(ptr noundef %12) #11
  %indvars.iv.next = add nuw nsw i64 %indvars.iv, 1
  %13 = load i64, ptr %8, align 8, !tbaa !4
  %14 = icmp ugt i64 %13, %indvars.iv.next
  br i1 %14, label %.lr.ph, label %.loopexit21, !llvm.loop !28

.loopexit21:                                      ; preds = %.lr.ph, %.preheader20, %4
  %.not19 = icmp eq i32 %1, 0
  br i1 %.not19, label %.loopexit, label %.preheader

.preheader:                                       ; preds = %.loopexit21
  %15 = getelementptr inbounds nuw i8, ptr %0, i64 8
  %16 = load i64, ptr %15, align 8, !tbaa !4
  %.not26 = icmp eq i64 %16, 0
  br i1 %.not26, label %.loopexit, label %.lr.ph24

.lr.ph24:                                         ; preds = %.preheader, %.lr.ph24
  %indvars.iv28 = phi i64 [ %indvars.iv.next29, %.lr.ph24 ], [ 0, %.preheader ]
  %17 = load ptr, ptr %0, align 8, !tbaa !13
  %18 = getelementptr inbounds nuw %struct.string_list_item, ptr %17, i64 %indvars.iv28, i32 1
  %19 = load ptr, ptr %18, align 8, !tbaa !20
  tail call void @free(ptr noundef %19) #11
  %indvars.iv.next29 = add nuw nsw i64 %indvars.iv28, 1
  %20 = load i64, ptr %15, align 8, !tbaa !4
  %21 = icmp ugt i64 %20, %indvars.iv.next29
  br i1 %21, label %.lr.ph24, label %.loopexit, !llvm.loop !29

.loopexit:                                        ; preds = %.lr.ph24, %.preheader, %.loopexit21
  %22 = load ptr, ptr %0, align 8, !tbaa !13
  tail call void @free(ptr noundef %22) #11
  br label %23

23:                                               ; preds = %.loopexit, %2
  tail call void @llvm.memset.p0.i64(ptr noundef nonnull align 8 dereferenceable(24) %0, i8 0, i64 24, i1 false)
  ret void
}